target datalayout = "e-m:e-p270:32:32-p271:32:32-p272:64:64-i64:64-i128:128-f80:128-n8:16:32:64-S128"
target triple = "x86_64-pc-linux-gnu"

%struct.AVFormatContext = type { ptr, ptr, ptr, ptr, ptr, i32, i32, ptr, i32, ptr, i32, ptr, ptr, i64, i64, i64, i32, i32, i32, i64, i64, ptr, i32, i32, ptr, i32, i32, i32, i32, ptr, i64, i32, i32, %struct.AVIOInterruptCB, i32, i32, i32, i32, i64, i32, i32, i32, i32, i32, i32, i32, i32, i32, i32, i32, i32, i64, i32, i32, i32, i32, i32, ptr, ptr, ptr, ptr, i32, ptr, ptr, ptr, ptr, i32, ptr, ptr, i64, ptr, ptr, ptr, i64 }
%struct.AVIOInterruptCB = type { ptr, ptr }
%struct.AVStream = type { ptr, i32, i32, ptr, ptr, %struct.AVRational, i64, i64, i64, i32, i32, %struct.AVRational, ptr, %struct.AVRational, %struct.AVPacket, i32, %struct.AVRational, i32 }
%struct.AVPacket = type { ptr, i64, i64, ptr, i32, i32, i32, ptr, i32, i64, i64, ptr, ptr, %struct.AVRational }
%struct.AVRational = type { i32, i32 }

@.str.11 = private unnamed_addr constant [15 x i8] c"none (ret=%d)\0A\00", align 1
@.str.12 = private unnamed_addr constant [27 x i8] c"pos=0x%lx dts=0x%lx %0.3f\0A\00", align 1

; Function Attrs: nounwind uwtable
define internal i64 @mpegps_read_dts(ptr noundef %0, i32 noundef %1, ptr noundef %2, i64 noundef %3) #0 {
  %5 = alloca i64, align 8
  %6 = alloca ptr, align 8
  %7 = alloca i32, align 4
  %8 = alloca ptr, align 8
  %9 = alloca i64, align 8
  %10 = alloca i32, align 4
  %11 = alloca i32, align 4
  %12 = alloca i64, align 8
  %13 = alloca i64, align 8
  %14 = alloca i64, align 8
  %15 = alloca i32, align 4
  store ptr %0, ptr %6, align 8, !tbaa !18
  store i32 %1, ptr %7, align 4, !tbaa !9
  store ptr %2, ptr %8, align 8, !tbaa !92
  store i64 %3, ptr %9, align 8, !tbaa !38
  call void @llvm.lifetime.start.p0(i64 4, ptr %10) #12
  call void @llvm.lifetime.start.p0(i64 4, ptr %11) #12
  call void @llvm.lifetime.start.p0(i64 8, ptr %12) #12
  call void @llvm.lifetime.start.p0(i64 8, ptr %13) #12
  call void @llvm.lifetime.start.p0(i64 8, ptr %14) #12
  %16 = load ptr, ptr %8, align 8, !tbaa !92
  %17 = load i64, ptr %16, align 8, !tbaa !38
  store i64 %17, ptr %12, align 8, !tbaa !38
  %18 = load ptr, ptr %6, align 8, !tbaa !18
  %19 = getelementptr inbounds nuw %struct.AVFormatContext, ptr %18, i32 0, i32 4
  %20 = load ptr, ptr %19, align 8, !tbaa !37
  %21 = load i64, ptr %12, align 8, !tbaa !38
  %22 = call i64 @avio_seek(ptr noundef %20, i64 noundef %21, i32 noundef 0)
  %23 = icmp slt i64 %22, 0
  br i1 %23, label %24, label %25

24:                                               ; preds = %4
  store i64 -9223372036854775808, ptr %5, align 8
  store i32 1, ptr %15, align 4
  br label %81

25:                                               ; preds = %4
  br label %26

26:                                               ; preds = %57, %25
  %27 = load ptr, ptr %6, align 8, !tbaa !18
  %28 = call i32 @mpegps_read_pes_header(ptr noundef %27, ptr noundef %12, ptr noundef %11, ptr noundef %13, ptr noundef %14)
  store i32 %28, ptr %10, align 4, !tbaa !9
  %29 = load i32, ptr %10, align 4, !tbaa !9
  %30 = icmp slt i32 %29, 0
  br i1 %30, label %31, label %41

31:                                               ; preds = %26
  %32 = load ptr, ptr %6, align 8, !tbaa !18
  %33 = getelementptr inbounds nuw %struct.AVFormatContext, ptr %32, i32 0, i32 34
  %34 = load i32, ptr %33, align 8, !tbaa !90
  %35 = and i32 %34, 1
  %36 = icmp ne i32 %35, 0
  br i1 %36, label %37, label %40

37:                                               ; preds = %31
  %38 = load ptr, ptr %6, align 8, !tbaa !18
  %39 = load i32, ptr %10, align 4, !tbaa !9
  call void (ptr, i32, ptr, ...) @av_log(ptr noundef %38, i32 noundef 48, ptr noundef @.str.11, i32 noundef %39)
  br label %40

40:                                               ; preds = %37, %31
  store i64 -9223372036854775808, ptr %5, align 8
  store i32 1, ptr %15, align 4
  br label %81

41:                                               ; preds = %26
  %42 = load i32, ptr %11, align 4, !tbaa !9
  %43 = load ptr, ptr %6, align 8, !tbaa !18
  %44 = getelementptr inbounds nuw %struct.AVFormatContext, ptr %43, i32 0, i32 7
  %45 = load ptr, ptr %44, align 8, !tbaa !48
  %46 = load i32, ptr %7, align 4, !tbaa !9
  %47 = sext i32 %46 to i64
  %48 = getelementptr inbounds ptr, ptr %45, i64 %47
  %49 = load ptr, ptr %48, align 8, !tbaa !49
  %50 = getelementptr inbounds nuw %struct.AVStream, ptr %49, i32 0, i32 2
  %51 = load i32, ptr %50, align 4, !tbaa !51
  %52 = icmp eq i32 %42, %51
  br i1 %52, label %53, label %57

53:                                               ; preds = %41
  %54 = load i64, ptr %14, align 8, !tbaa !38
  %55 = icmp ne i64 %54, -9223372036854775808
  br i1 %55, label %56, label %57

56:                                               ; preds = %53
  br label %64

57:                                               ; preds = %53, %41
  %58 = load ptr, ptr %6, align 8, !tbaa !18
  %59 = getelementptr inbounds nuw %struct.AVFormatContext, ptr %58, i32 0, i32 4
  %60 = load ptr, ptr %59, align 8, !tbaa !37
  %61 = load i32, ptr %10, align 4, !tbaa !9
  %62 = sext i32 %61 to i64
  %63 = call i64 @avio_skip(ptr noundef %60, i64 noundef %62)
  br label %26

64:                                               ; preds = %56
  %65 = load ptr, ptr %6, align 8, !tbaa !18
  %66 = getelementptr inbounds nuw %struct.AVFormatContext, ptr %65, i32 0, i32 34
  %67 = load i32, ptr %66, align 8, !tbaa !90
  %68 = and i32 %67, 1
  %69 = icmp ne i32 %68, 0
  br i1 %69, label %70, label %77

70:                                               ; preds = %64
  %71 = load ptr, ptr %6, align 8, !tbaa !18
  %72 = load i64, ptr %12, align 8, !tbaa !38
  %73 = load i64, ptr %14, align 8, !tbaa !38
  %74 = load i64, ptr %14, align 8, !tbaa !38
  %75 = sitofp i64 %74 to double
  %76 = fdiv nsz double %75, 9.000000e+04
  call void (ptr, i32, ptr, ...) @av_log(ptr noundef %71, i32 noundef 48, ptr noundef @.str.12, i64 noundef %72, i64 noundef %73, double noundef %76)
  br label %77

77:                                               ; preds = %70, %64
  %78 = load i64, ptr %12, align 8, !tbaa !38
  %79 = load ptr, ptr %8, align 8, !tbaa !92
  store i64 %78, ptr %79, align 8, !tbaa !38
  %80 = load i64, ptr %14, align 8, !tbaa !38
  store i64 %80, ptr %5, align 8
  store i32 1, ptr %15, align 4
  br label %81

81:                                               ; preds = %77, %40, %24
  call void @llvm.lifetime.end.p0(i64 8, ptr %14) #12
  call void @llvm.lifetime.end.p0(i64 8, ptr %13) #12
  call void @llvm.lifetime.end.p0(i64 8, ptr %12) #12
  call void @llvm.lifetime.end.p0(i64 4, ptr %11) #12
  call void @llvm.lifetime.end.p0(i64 4, ptr %10) #12
  %82 = load i64, ptr %5, align 8
  ret i64 %82
}