; Function Attrs: nounwind uwtable
define internal i64 @mpegps_read_dts(ptr noundef %0, i32 noundef %1, ptr noundef captures(none) %2, i64 %3) #1 {
  %5 = alloca i32, align 4
  %6 = alloca i64, align 8
  %7 = alloca i64, align 8
  %8 = alloca i64, align 8
  call void @llvm.lifetime.start.p0(i64 4, ptr nonnull %5) #13
  call void @llvm.lifetime.start.p0(i64 8, ptr nonnull %6) #13
  call void @llvm.lifetime.start.p0(i64 8, ptr nonnull %7) #13
  call void @llvm.lifetime.start.p0(i64 8, ptr nonnull %8) #13
  %9 = load i64, ptr %2, align 8, !tbaa !72
  store i64 %9, ptr %6, align 8, !tbaa !72
  %10 = getelementptr inbounds nuw i8, ptr %0, i64 32
  %11 = load ptr, ptr %10, align 8, !tbaa !31
  %12 = tail call i64 @avio_seek(ptr noundef %11, i64 noundef %9, i32 noundef 0) #13
  %13 = icmp slt i64 %12, 0
  br i1 %13, label %47, label %.preheader

.preheader:                                       ; preds = %4
  %14 = call fastcc i32 @mpegps_read_pes_header(ptr noundef nonnull %0, ptr noundef nonnull %6, ptr noundef %5, ptr noundef %7, ptr noundef %8)
  %15 = icmp slt i32 %14, 0
  br i1 %15, label %._crit_edge, label %.lr.ph

.lr.ph:                                           ; preds = %.preheader
  %16 = getelementptr inbounds nuw i8, ptr %0, i64 48
  %17 = sext i32 %1 to i64
  br label %22

._crit_edge:                                      ; preds = %33, %.preheader
  %.lcssa = phi i32 [ %14, %.preheader ], [ %37, %33 ]
  %18 = getelementptr inbounds nuw i8, ptr %0, i64 232
  %19 = load i32, ptr %18, align 8, !tbaa !78
  %20 = and i32 %19, 1
  %.not17 = icmp eq i32 %20, 0
  br i1 %.not17, label %47, label %21

21:                                               ; preds = %._crit_edge
  call void (ptr, i32, ptr, ...) @av_log(ptr noundef nonnull %0, i32 noundef 48, ptr noundef nonnull @.str.11, i32 noundef %.lcssa) #13
  br label %47

22:                                               ; preds = %.lr.ph, %33
  %23 = phi i32 [ %14, %.lr.ph ], [ %37, %33 ]
  %24 = load i32, ptr %5, align 4, !tbaa !37
  %25 = load ptr, ptr %16, align 8, !tbaa !40
  %26 = getelementptr inbounds ptr, ptr %25, i64 %17
  %27 = load ptr, ptr %26, align 8, !tbaa !42
  %28 = getelementptr inbounds nuw i8, ptr %27, i64 12
  %29 = load i32, ptr %28, align 4, !tbaa !44
  %30 = icmp eq i32 %24, %29
  %31 = load i64, ptr %8, align 8
  %32 = icmp ne i64 %31, -9223372036854775808
  %or.cond = select i1 %30, i1 %32, i1 false
  br i1 %or.cond, label %39, label %33

33:                                               ; preds = %22
  %34 = load ptr, ptr %10, align 8, !tbaa !31
  %35 = zext nneg i32 %23 to i64
  %36 = call i64 @avio_skip(ptr noundef %34, i64 noundef %35) #13
  %37 = call fastcc i32 @mpegps_read_pes_header(ptr noundef nonnull %0, ptr noundef nonnull %6, ptr noundef %5, ptr noundef %7, ptr noundef %8)
  %38 = icmp slt i32 %37, 0
  br i1 %38, label %._crit_edge, label %22

39:                                               ; preds = %22
  %40 = getelementptr inbounds nuw i8, ptr %0, i64 232
  %41 = load i32, ptr %40, align 8, !tbaa !78
  %42 = and i32 %41, 1
  %.not = icmp eq i32 %42, 0
  %.pre = load i64, ptr %6, align 8, !tbaa !72
  br i1 %.not, label %46, label %43

43:                                               ; preds = %39
  %44 = sitofp i64 %31 to double
  %45 = fdiv nsz double %44, 9.000000e+04
  call void (ptr, i32, ptr, ...) @av_log(ptr noundef nonnull %0, i32 noundef 48, ptr noundef nonnull @.str.12, i64 noundef %.pre, i64 noundef %31, double noundef %45) #13
  br label %46

46:                                               ; preds = %43, %39
  store i64 %.pre, ptr %2, align 8, !tbaa !72
  br label %47

47:                                               ; preds = %._crit_edge, %21, %4, %46
  %.0 = phi i64 [ %31, %46 ], [ -9223372036854775808, %4 ], [ -9223372036854775808, %21 ], [ -9223372036854775808, %._crit_edge ]
  call void @llvm.lifetime.end.p0(i64 8, ptr nonnull %8) #13
  call void @llvm.lifetime.end.p0(i64 8, ptr nonnull %7) #13
  call void @llvm.lifetime.end.p0(i64 8, ptr nonnull %6) #13
  call void @llvm.lifetime.end.p0(i64 4, ptr nonnull %5) #13
  ret i64 %.0
}